target datalayout = "e-m:e-p270:32:32-p271:32:32-p272:64:64-i64:64-i128:128-f80:128-n8:16:32:64-S128"
target triple = "x86_64-pc-linux-gnu"

%struct.WebPBitstreamFeatures = type { i32, i32, i32, i32, i32, [5 x i32] }
%struct.WebPDecoderConfig = type { %struct.WebPBitstreamFeatures, %struct.WebPDecBuffer, %struct.WebPDecoderOptions }
%struct.WebPDecBuffer = type { i32, i32, i32, i32, %union.anon, [4 x i32], ptr }
%union.anon = type { %struct.WebPYUVABuffer }
%struct.WebPYUVABuffer = type { ptr, ptr, ptr, ptr, i32, i32, i32, i32, i64, i64, i64, i64 }
%struct.WebPDecoderOptions = type { i32, i32, i32, i32, i32, i32, i32, i32, i32, i32, i32, i32, i32, i32, [5 x i32] }

@stderr = external global ptr, align 8
@.str.16 = private unnamed_addr constant [148 x i8] c"Error! Decoding of an animated WebP file is not supported.\0A       Use webpmux to extract the individual frames or\0A       vwebp to view this image.\0A\00", align 1

; Function Attrs: nounwind uwtable
define internal void @PrintAnimationWarning(ptr noundef %0) #0 {
  %2 = alloca ptr, align 8
  store ptr %0, ptr %2, align 8, !tbaa !21
  %3 = load ptr, ptr %2, align 8, !tbaa !21
  %4 = getelementptr inbounds nuw %struct.WebPDecoderConfig, ptr %3, i32 0, i32 0
  %5 = getelementptr inbounds nuw %struct.WebPBitstreamFeatures, ptr %4, i32 0, i32 3
  %6 = load i32, ptr %5, align 4, !tbaa !23
  %7 = icmp ne i32 %6, 0
  br i1 %7, label %8, label %11

8:                                                ; preds = %1
  %9 = load ptr, ptr @stderr, align 8, !tbaa !11
  %10 = call i32 (ptr, ptr, ...) @fprintf(ptr noundef %9, ptr noundef @.str.16) #5
  br label %11

11:                                               ; preds = %8, %1
  ret void
}

; Function Attrs: nounwind uwtable
define hidden i32 @DecodeWebP(ptr noundef %0, i64 noundef %1, ptr noundef %2) #0 {
  %4 = alloca i32, align 4
  %5 = alloca ptr, align 8
  %6 = alloca i64, align 8
  %7 = alloca ptr, align 8
  store ptr %0, ptr %5, align 8, !tbaa !4
  store i64 %1, ptr %6, align 8, !tbaa !19
  store ptr %2, ptr %7, align 8, !tbaa !21
  %8 = load ptr, ptr %7, align 8, !tbaa !21
  %9 = icmp eq ptr %8, null
  br i1 %9, label %10, label %11

10:                                               ; preds = %3
  store i32 2, ptr %4, align 4
  br label %17

11:                                               ; preds = %3
  %12 = load ptr, ptr %7, align 8, !tbaa !21
  call void @PrintAnimationWarning(ptr noundef %12)
  %13 = load ptr, ptr %5, align 8, !tbaa !4
  %14 = load i64, ptr %6, align 8, !tbaa !19
  %15 = load ptr, ptr %7, align 8, !tbaa !21
  %16 = call i32 @WebPDecode(ptr noundef %13, i64 noundef %14, ptr noundef %15)
  store i32 %16, ptr %4, align 4
  br label %17

17:                                               ; preds = %11, %10
  %18 = load i32, ptr %4, align 4
  ret i32 %18
}